opt subtitle "HI-TECH Software Omniscient Code Generator (Lite mode) build 7503"

opt pagewidth 120

	opt lm

	processor	16F877A
clrc	macro
	bcf	3,0
	endm
clrz	macro
	bcf	3,2
	endm
setc	macro
	bsf	3,0
	endm
setz	macro
	bsf	3,2
	endm
skipc	macro
	btfss	3,0
	endm
skipz	macro
	btfss	3,2
	endm
skipnc	macro
	btfsc	3,0
	endm
skipnz	macro
	btfsc	3,2
	endm
indf	equ	0
indf0	equ	0
pc	equ	2
pcl	equ	2
status	equ	3
fsr	equ	4
fsr0	equ	4
c	equ	1
z	equ	0
pclath	equ	10
# 3 "C:\Users\Mani\Desktop\pic16f877a\Protocol\USART\usart_01\usart_01.c"
	psect config,class=CONFIG,delta=2 ;#
# 3 "C:\Users\Mani\Desktop\pic16f877a\Protocol\USART\usart_01\usart_01.c"
	dw 0x1F7A ;#
	FNCALL	_main,_uart_init
	FNCALL	_main,_uart_tx
	FNROOT	_main
	global	_RCSTA
psect	text66,local,class=CODE,delta=2
global __ptext66
__ptext66:
_RCSTA	set	24
	global	_TXREG
_TXREG	set	25
	global	_RCIF
_RCIF	set	101
	global	_SPEN
_SPEN	set	199
	global	_TXIF
_TXIF	set	100
	global	_SPBRG
_SPBRG	set	153
	global	_TXSTA
_TXSTA	set	152
	global	_TRISC6
_TRISC6	set	1086
	global	_TRISC7
_TRISC7	set	1087
	global	_TXEN
_TXEN	set	1221
	file	"usart_01.as"
	line	#
psect cinit,class=CODE,delta=2
global start_initialization
start_initialization:

psect cinit,class=CODE,delta=2
global end_of_initialization

;End of C runtime variable initialization code

end_of_initialization:
clrf status
ljmp _main	;jump to C main() function
psect	cstackCOMMON,class=COMMON,space=1
global __pcstackCOMMON
__pcstackCOMMON:
	global	?_uart_init
?_uart_init:	; 0 bytes @ 0x0
	global	??_uart_init
??_uart_init:	; 0 bytes @ 0x0
	global	?_uart_tx
?_uart_tx:	; 0 bytes @ 0x0
	global	??_uart_tx
??_uart_tx:	; 0 bytes @ 0x0
	global	?_main
?_main:	; 0 bytes @ 0x0
	global	uart_tx@val
uart_tx@val:	; 1 bytes @ 0x0
	ds	1
	global	??_main
??_main:	; 0 bytes @ 0x1
	ds	3
;;Data sizes: Strings 0, constant 0, data 0, bss 0, persistent 0 stack 0
;;Auto spaces:   Size  Autos    Used
;; COMMON          14      4       4
;; BANK0           80      0       0
;; BANK1           80      0       0
;; BANK3           96      0       0
;; BANK2           96      0       0

;;
;; Pointer list with targets:



;;
;; Critical Paths under _main in COMMON
;;
;;   _main->_uart_tx
;;
;; Critical Paths under _main in BANK0
;;
;;   None.
;;
;; Critical Paths under _main in BANK1
;;
;;   None.
;;
;; Critical Paths under _main in BANK3
;;
;;   None.
;;
;; Critical Paths under _main in BANK2
;;
;;   None.

;;
;;Main: autosize = 0, tempsize = 3, incstack = 0, save=0
;;

;;
;;Call Graph Tables:
;;
;; ---------------------------------------------------------------------------------
;; (Depth) Function   	        Calls       Base Space   Used Autos Params    Refs
;; ---------------------------------------------------------------------------------
;; (0) _main                                                 3     3      0      15
;;                                              1 COMMON     3     3      0
;;                          _uart_init
;;                            _uart_tx
;; ---------------------------------------------------------------------------------
;; (1) _uart_tx                                              1     1      0      15
;;                                              0 COMMON     1     1      0
;; ---------------------------------------------------------------------------------
;; (1) _uart_init                                            0     0      0       0
;; ---------------------------------------------------------------------------------
;; Estimated maximum stack depth 1
;; ---------------------------------------------------------------------------------

;; Call Graph Graphs:

;; _main (ROOT)
;;   _uart_init
;;   _uart_tx
;;

;; Address spaces:

;;Name               Size   Autos  Total    Cost      Usage
;;BITCOMMON            E      0       0       0        0.0%
;;EEDATA             100      0       0       0        0.0%
;;NULL                 0      0       0       0        0.0%
;;CODE                 0      0       0       0        0.0%
;;COMMON               E      4       4       1       28.6%
;;BITSFR0              0      0       0       1        0.0%
;;SFR0                 0      0       0       1        0.0%
;;BITSFR1              0      0       0       2        0.0%
;;SFR1                 0      0       0       2        0.0%
;;STACK                0      0       1       2        0.0%
;;ABS                  0      0       0       3        0.0%
;;BITBANK0            50      0       0       4        0.0%
;;BITSFR3              0      0       0       4        0.0%
;;SFR3                 0      0       0       4        0.0%
;;BANK0               50      0       0       5        0.0%
;;BITSFR2              0      0       0       5        0.0%
;;SFR2                 0      0       0       5        0.0%
;;BITBANK1            50      0       0       6        0.0%
;;BANK1               50      0       0       7        0.0%
;;BITBANK3            60      0       0       8        0.0%
;;BANK3               60      0       0       9        0.0%
;;BITBANK2            60      0       0      10        0.0%
;;BANK2               60      0       0      11        0.0%
;;DATA                 0      0       0      12        0.0%

	global	_main
psect	maintext,global,class=CODE,delta=2
global __pmaintext
__pmaintext:

;; *************** function _main *****************
;; Defined at:
;;		line 29 in file "C:\Users\Mani\Desktop\pic16f877a\Protocol\USART\usart_01\usart_01.c"
;; Parameters:    Size  Location     Type
;;		None
;; Auto vars:     Size  Location     Type
;;		None
;; Return value:  Size  Location     Type
;;		None               void
;; Registers used:
;;		wreg, status,2, status,0, pclath, cstack
;; Tracked objects:
;;		On entry : 17F/0
;;		On exit  : 0/0
;;		Unchanged: 0/0
;; Data sizes:     COMMON   BANK0   BANK1   BANK3   BANK2
;;      Params:         0       0       0       0       0
;;      Locals:         0       0       0       0       0
;;      Temps:          3       0       0       0       0
;;      Totals:         3       0       0       0       0
;;Total ram usage:        3 bytes
;; Hardware stack levels required when called:    1
;; This function calls:
;;		_uart_init
;;		_uart_tx
;; This function is called by:
;;		Startup code after reset
;; This function uses a non-reentrant model
;;
psect	maintext
	file	"C:\Users\Mani\Desktop\pic16f877a\Protocol\USART\usart_01\usart_01.c"
	line	29
	global	__size_of_main
	__size_of_main	equ	__end_of_main-_main
	
_main:	
	opt	stack 7
; Regs used in _main: [wreg+status,2+status,0+pclath+cstack]
	line	30
	
l1850:	
;usart_01.c: 30: uart_init();
	fcall	_uart_init
	line	31
;usart_01.c: 31: uart_tx('S');
	movlw	(053h)
	fcall	_uart_tx
	line	32
	
l1852:	
;usart_01.c: 32: _delay((unsigned long)((100)*(20000000/4000.0)));
	opt asmopt_off
movlw  3
movwf	((??_main+0)+0+2),f
movlw	136
movwf	((??_main+0)+0+1),f
	movlw	86
movwf	((??_main+0)+0),f
u2157:
	decfsz	((??_main+0)+0),f
	goto	u2157
	decfsz	((??_main+0)+0+1),f
	goto	u2157
	decfsz	((??_main+0)+0+2),f
	goto	u2157
opt asmopt_on

	line	33
	
l1854:	
;usart_01.c: 33: uart_tx('L');
	movlw	(04Ch)
	fcall	_uart_tx
	line	34
;usart_01.c: 34: _delay((unsigned long)((100)*(20000000/4000.0)));
	opt asmopt_off
movlw  3
movwf	((??_main+0)+0+2),f
movlw	136
movwf	((??_main+0)+0+1),f
	movlw	86
movwf	((??_main+0)+0),f
u2167:
	decfsz	((??_main+0)+0),f
	goto	u2167
	decfsz	((??_main+0)+0+1),f
	goto	u2167
	decfsz	((??_main+0)+0+2),f
	goto	u2167
opt asmopt_on

	line	35
	
l1856:	
;usart_01.c: 35: uart_tx(' ');
	movlw	(020h)
	fcall	_uart_tx
	line	36
	
l1858:	
;usart_01.c: 36: _delay((unsigned long)((100)*(20000000/4000.0)));
	opt asmopt_off
movlw  3
movwf	((??_main+0)+0+2),f
movlw	136
movwf	((??_main+0)+0+1),f
	movlw	86
movwf	((??_main+0)+0),f
u2177:
	decfsz	((??_main+0)+0),f
	goto	u2177
	decfsz	((??_main+0)+0+1),f
	goto	u2177
	decfsz	((??_main+0)+0+2),f
	goto	u2177
opt asmopt_on

	line	37
;usart_01.c: 37: uart_tx('D');
	movlw	(044h)
	fcall	_uart_tx
	line	38
	
l1860:	
;usart_01.c: 38: _delay((unsigned long)((100)*(20000000/4000.0)));
	opt asmopt_off
movlw  3
movwf	((??_main+0)+0+2),f
movlw	136
movwf	((??_main+0)+0+1),f
	movlw	86
movwf	((??_main+0)+0),f
u2187:
	decfsz	((??_main+0)+0),f
	goto	u2187
	decfsz	((??_main+0)+0+1),f
	goto	u2187
	decfsz	((??_main+0)+0+2),f
	goto	u2187
opt asmopt_on

	line	39
	
l1862:	
;usart_01.c: 39: uart_tx('P');
	movlw	(050h)
	fcall	_uart_tx
	line	40
;usart_01.c: 40: _delay((unsigned long)((100)*(20000000/4000.0)));
	opt asmopt_off
movlw  3
movwf	((??_main+0)+0+2),f
movlw	136
movwf	((??_main+0)+0+1),f
	movlw	86
movwf	((??_main+0)+0),f
u2197:
	decfsz	((??_main+0)+0),f
	goto	u2197
	decfsz	((??_main+0)+0+1),f
	goto	u2197
	decfsz	((??_main+0)+0+2),f
	goto	u2197
opt asmopt_on

	line	41
	
l1864:	
;usart_01.c: 41: uart_tx('I');
	movlw	(049h)
	fcall	_uart_tx
	line	42
	
l1866:	
;usart_01.c: 42: _delay((unsigned long)((100)*(20000000/4000.0)));
	opt asmopt_off
movlw  3
movwf	((??_main+0)+0+2),f
movlw	136
movwf	((??_main+0)+0+1),f
	movlw	86
movwf	((??_main+0)+0),f
u2207:
	decfsz	((??_main+0)+0),f
	goto	u2207
	decfsz	((??_main+0)+0+1),f
	goto	u2207
	decfsz	((??_main+0)+0+2),f
	goto	u2207
opt asmopt_on

	goto	l697
	line	44
;usart_01.c: 44: while(1);
	
l696:	
	
l697:	
	goto	l697
	
l698:	
	line	45
	
l699:	
	global	start
	ljmp	start
	opt stack 0
GLOBAL	__end_of_main
	__end_of_main:
;; =============== function _main ends ============

	signat	_main,88
	global	_uart_tx
psect	text67,local,class=CODE,delta=2
global __ptext67
__ptext67:

;; *************** function _uart_tx *****************
;; Defined at:
;;		line 22 in file "C:\Users\Mani\Desktop\pic16f877a\Protocol\USART\usart_01\usart_01.c"
;; Parameters:    Size  Location     Type
;;  val             1    wreg     unsigned char 
;; Auto vars:     Size  Location     Type
;;  val             1    0[COMMON] unsigned char 
;; Return value:  Size  Location     Type
;;		None               void
;; Registers used:
;;		wreg
;; Tracked objects:
;;		On entry : 0/0
;;		On exit  : 0/0
;;		Unchanged: 0/0
;; Data sizes:     COMMON   BANK0   BANK1   BANK3   BANK2
;;      Params:         0       0       0       0       0
;;      Locals:         1       0       0       0       0
;;      Temps:          0       0       0       0       0
;;      Totals:         1       0       0       0       0
;;Total ram usage:        1 bytes
;; Hardware stack levels used:    1
;; This function calls:
;;		Nothing
;; This function is called by:
;;		_main
;; This function uses a non-reentrant model
;;
psect	text67
	file	"C:\Users\Mani\Desktop\pic16f877a\Protocol\USART\usart_01\usart_01.c"
	line	22
	global	__size_of_uart_tx
	__size_of_uart_tx	equ	__end_of_uart_tx-_uart_tx
	
_uart_tx:	
	opt	stack 7
; Regs used in _uart_tx: [wreg]
;uart_tx@val stored from wreg
	movwf	(uart_tx@val)
	line	23
	
l1082:	
;usart_01.c: 23: TXREG = val;
	movf	(uart_tx@val),w
	bcf	status, 5	;RP0=0, select bank0
	bcf	status, 6	;RP1=0, select bank0
	movwf	(25)	;volatile
	line	24
;usart_01.c: 24: while(TXIF == 0);
	goto	l690
	
l691:	
	
l690:	
	btfss	(100/8),(100)&7
	goto	u11
	goto	u10
u11:
	goto	l690
u10:
	
l692:	
	line	25
;usart_01.c: 25: TXIF = 0;
	bcf	(100/8),(100)&7
	line	26
	
l693:	
	return
	opt stack 0
GLOBAL	__end_of_uart_tx
	__end_of_uart_tx:
;; =============== function _uart_tx ends ============

	signat	_uart_tx,4216
	global	_uart_init
psect	text68,local,class=CODE,delta=2
global __ptext68
__ptext68:

;; *************** function _uart_init *****************
;; Defined at:
;;		line 8 in file "C:\Users\Mani\Desktop\pic16f877a\Protocol\USART\usart_01\usart_01.c"
;; Parameters:    Size  Location     Type
;;		None
;; Auto vars:     Size  Location     Type
;;		None
;; Return value:  Size  Location     Type
;;		None               void
;; Registers used:
;;		wreg, status,2
;; Tracked objects:
;;		On entry : 0/0
;;		On exit  : 0/0
;;		Unchanged: 0/0
;; Data sizes:     COMMON   BANK0   BANK1   BANK3   BANK2
;;      Params:         0       0       0       0       0
;;      Locals:         0       0       0       0       0
;;      Temps:          0       0       0       0       0
;;      Totals:         0       0       0       0       0
;;Total ram usage:        0 bytes
;; Hardware stack levels used:    1
;; This function calls:
;;		Nothing
;; This function is called by:
;;		_main
;; This function uses a non-reentrant model
;;
psect	text68
	file	"C:\Users\Mani\Desktop\pic16f877a\Protocol\USART\usart_01\usart_01.c"
	line	8
	global	__size_of_uart_init
	__size_of_uart_init	equ	__end_of_uart_init-_uart_init
	
_uart_init:	
	opt	stack 7
; Regs used in _uart_init: [wreg+status,2]
	line	9
	
l1068:	
;usart_01.c: 9: TRISC6 = 1;
	bsf	status, 5	;RP0=1, select bank1
	bcf	status, 6	;RP1=0, select bank1
	bsf	(1086/8)^080h,(1086)&7
	line	10
;usart_01.c: 10: TRISC7 = 0;
	bcf	(1087/8)^080h,(1087)&7
	line	11
	
l1070:	
;usart_01.c: 11: TXSTA = 0X00;
	clrf	(152)^080h	;volatile
	line	12
;usart_01.c: 12: RCSTA = 0X00;
	bcf	status, 5	;RP0=0, select bank0
	bcf	status, 6	;RP1=0, select bank0
	clrf	(24)	;volatile
	line	13
	
l1072:	
;usart_01.c: 13: SPBRG = 31;
	movlw	(01Fh)
	bsf	status, 5	;RP0=1, select bank1
	bcf	status, 6	;RP1=0, select bank1
	movwf	(153)^080h	;volatile
	line	14
	
l1074:	
;usart_01.c: 14: TXEN = 1;
	bsf	(1221/8)^080h,(1221)&7
	line	15
	
l1076:	
;usart_01.c: 15: SPEN = 1;
	bcf	status, 5	;RP0=0, select bank0
	bcf	status, 6	;RP1=0, select bank0
	bsf	(199/8),(199)&7
	line	16
	
l1078:	
;usart_01.c: 16: TXIF = 0;
	bcf	(100/8),(100)&7
	line	17
	
l1080:	
;usart_01.c: 17: RCIF = 0;
	bcf	(101/8),(101)&7
	line	19
	
l687:	
	return
	opt stack 0
GLOBAL	__end_of_uart_init
	__end_of_uart_init:
;; =============== function _uart_init ends ============

	signat	_uart_init,88
psect	text69,local,class=CODE,delta=2
global __ptext69
__ptext69:
	global	btemp
	btemp set 07Eh

	DABS	1,126,2	;btemp
	global	wtemp0
	wtemp0 set btemp
	end
